target datalayout = "e-m:e-p270:32:32-p271:32:32-p272:64:64-i64:64-i128:128-f80:128-n8:16:32:64-S128"
target triple = "x86_64-pc-linux-gnu"

%struct.ReorderBuffer = type { ptr, %struct.dlist_head, %struct.dlist_head, %struct.dclist_head, i32, ptr, ptr, ptr, ptr, ptr, ptr, ptr, ptr, ptr, ptr, ptr, ptr, ptr, ptr, ptr, ptr, ptr, ptr, ptr, ptr, i8, ptr, ptr, ptr, ptr, i64, ptr, i64, i64, ptr, i64, i64, i64, i64, i64, i64, i64, i64 }
%struct.dlist_head = type { %struct.dlist_node }
%struct.dlist_node = type { ptr, ptr }
%struct.dclist_head = type { %struct.dlist_head, i32 }
%struct.ReorderBufferTXN = type { i32, i32, i32, ptr, i64, i64, i64, ptr, i64, i16, i64, %union.anon.4, ptr, i64, %struct.dlist_node, ptr, i32, i64, i64, %struct.dlist_head, %struct.dlist_head, i64, ptr, ptr, %struct.dlist_head, i32, i32, ptr, %struct.dlist_node, %struct.dlist_node, %struct.pairingheap_node, i64, i64, ptr }
%union.anon.4 = type { i64 }
%struct.pairingheap_node = type { ptr, ptr, ptr }

; Function Attrs: inlinehint nounwind uwtable
define internal void @dlist_init(ptr noundef %0) #4 {
  %2 = alloca ptr, align 8
  store ptr %0, ptr %2, align 8
  %3 = load ptr, ptr %2, align 8
  %4 = getelementptr inbounds nuw %struct.dlist_head, ptr %3, i32 0, i32 0
  %5 = load ptr, ptr %2, align 8
  %6 = getelementptr inbounds nuw %struct.dlist_head, ptr %5, i32 0, i32 0
  %7 = getelementptr inbounds nuw %struct.dlist_node, ptr %6, i32 0, i32 0
  store ptr %4, ptr %7, align 8
  %8 = load ptr, ptr %2, align 8
  %9 = getelementptr inbounds nuw %struct.dlist_head, ptr %8, i32 0, i32 0
  %10 = getelementptr inbounds nuw %struct.dlist_node, ptr %9, i32 0, i32 1
  store ptr %4, ptr %10, align 8
  ret void
}

; Function Attrs: inlinehint nounwind uwtable
define internal void @dlist_push_tail(ptr noundef %0, ptr noundef %1) #4 {
  %3 = alloca ptr, align 8
  %4 = alloca ptr, align 8
  store ptr %0, ptr %3, align 8
  store ptr %1, ptr %4, align 8
  %5 = load ptr, ptr %3, align 8
  %6 = getelementptr inbounds nuw %struct.dlist_head, ptr %5, i32 0, i32 0
  %7 = getelementptr inbounds nuw %struct.dlist_node, ptr %6, i32 0, i32 1
  %8 = load ptr, ptr %7, align 8
  %9 = icmp eq ptr %8, null
  br i1 %9, label %10, label %12

10:                                               ; preds = %2
  %11 = load ptr, ptr %3, align 8
  call void @dlist_init(ptr noundef %11)
  br label %12

12:                                               ; preds = %10, %2
  %13 = load ptr, ptr %3, align 8
  %14 = getelementptr inbounds nuw %struct.dlist_head, ptr %13, i32 0, i32 0
  %15 = load ptr, ptr %4, align 8
  %16 = getelementptr inbounds nuw %struct.dlist_node, ptr %15, i32 0, i32 1
  store ptr %14, ptr %16, align 8
  %17 = load ptr, ptr %3, align 8
  %18 = getelementptr inbounds nuw %struct.dlist_head, ptr %17, i32 0, i32 0
  %19 = getelementptr inbounds nuw %struct.dlist_node, ptr %18, i32 0, i32 0
  %20 = load ptr, ptr %19, align 8
  %21 = load ptr, ptr %4, align 8
  %22 = getelementptr inbounds nuw %struct.dlist_node, ptr %21, i32 0, i32 0
  store ptr %20, ptr %22, align 8
  %23 = load ptr, ptr %4, align 8
  %24 = load ptr, ptr %4, align 8
  %25 = getelementptr inbounds nuw %struct.dlist_node, ptr %24, i32 0, i32 0
  %26 = load ptr, ptr %25, align 8
  %27 = getelementptr inbounds nuw %struct.dlist_node, ptr %26, i32 0, i32 1
  store ptr %23, ptr %27, align 8
  %28 = load ptr, ptr %4, align 8
  %29 = load ptr, ptr %3, align 8
  %30 = getelementptr inbounds nuw %struct.dlist_head, ptr %29, i32 0, i32 0
  %31 = getelementptr inbounds nuw %struct.dlist_node, ptr %30, i32 0, i32 0
  store ptr %28, ptr %31, align 8
  ret void
}

; Function Attrs: inlinehint nounwind uwtable
define internal void @dclist_init(ptr noundef %0) #4 {
  %2 = alloca ptr, align 8
  store ptr %0, ptr %2, align 8
  %3 = load ptr, ptr %2, align 8
  %4 = getelementptr inbounds nuw %struct.dclist_head, ptr %3, i32 0, i32 0
  call void @dlist_init(ptr noundef %4)
  %5 = load ptr, ptr %2, align 8
  %6 = getelementptr inbounds nuw %struct.dclist_head, ptr %5, i32 0, i32 1
  store i32 0, ptr %6, align 8
  ret void
}

; Function Attrs: inlinehint nounwind uwtable
define internal void @dclist_push_tail(ptr noundef %0, ptr noundef %1) #4 {
  %3 = alloca ptr, align 8
  %4 = alloca ptr, align 8
  store ptr %0, ptr %3, align 8
  store ptr %1, ptr %4, align 8
  %5 = load ptr, ptr %3, align 8
  %6 = getelementptr inbounds nuw %struct.dclist_head, ptr %5, i32 0, i32 0
  %7 = getelementptr inbounds nuw %struct.dlist_head, ptr %6, i32 0, i32 0
  %8 = getelementptr inbounds nuw %struct.dlist_node, ptr %7, i32 0, i32 1
  %9 = load ptr, ptr %8, align 8
  %10 = icmp eq ptr %9, null
  br i1 %10, label %11, label %13

11:                                               ; preds = %2
  %12 = load ptr, ptr %3, align 8
  call void @dclist_init(ptr noundef %12)
  br label %13

13:                                               ; preds = %11, %2
  %14 = load ptr, ptr %3, align 8
  %15 = getelementptr inbounds nuw %struct.dclist_head, ptr %14, i32 0, i32 0
  %16 = load ptr, ptr %4, align 8
  call void @dlist_push_tail(ptr noundef %15, ptr noundef %16)
  %17 = load ptr, ptr %3, align 8
  %18 = getelementptr inbounds nuw %struct.dclist_head, ptr %17, i32 0, i32 1
  %19 = load i32, ptr %18, align 8
  %20 = add i32 %19, 1
  store i32 %20, ptr %18, align 8
  ret void
}

; Function Attrs: nounwind uwtable
define dso_local void @ReorderBufferXidSetCatalogChanges(ptr noundef %0, i32 noundef %1, i64 noundef %2) #0 {
  %4 = alloca ptr, align 8
  %5 = alloca i32, align 4
  %6 = alloca i64, align 8
  %7 = alloca ptr, align 8
  %8 = alloca ptr, align 8
  store ptr %0, ptr %4, align 8
  store i32 %1, ptr %5, align 4
  store i64 %2, ptr %6, align 8
  call void @llvm.lifetime.start.p0(i64 8, ptr %7) #13
  %9 = load ptr, ptr %4, align 8
  %10 = load i32, ptr %5, align 4
  %11 = load i64, ptr %6, align 8
  %12 = call ptr @ReorderBufferTXNByXid(ptr noundef %9, i32 noundef %10, i1 noundef zeroext true, ptr noundef null, i64 noundef %11, i1 noundef zeroext true)
  store ptr %12, ptr %7, align 8
  %13 = load ptr, ptr %7, align 8
  %14 = getelementptr inbounds nuw %struct.ReorderBufferTXN, ptr %13, i32 0, i32 0
  %15 = load i32, ptr %14, align 8
  %16 = and i32 %15, 1
  %17 = icmp ne i32 %16, 0
  br i1 %17, label %27, label %18

18:                                               ; preds = %3
  %19 = load ptr, ptr %7, align 8
  %20 = getelementptr inbounds nuw %struct.ReorderBufferTXN, ptr %19, i32 0, i32 0
  %21 = load i32, ptr %20, align 8
  %22 = or i32 %21, 1
  store i32 %22, ptr %20, align 8
  %23 = load ptr, ptr %4, align 8
  %24 = getelementptr inbounds nuw %struct.ReorderBuffer, ptr %23, i32 0, i32 3
  %25 = load ptr, ptr %7, align 8
  %26 = getelementptr inbounds nuw %struct.ReorderBufferTXN, ptr %25, i32 0, i32 29
  call void @dclist_push_tail(ptr noundef %24, ptr noundef %26)
  br label %27

27:                                               ; preds = %18, %3
  %28 = load ptr, ptr %7, align 8
  %29 = getelementptr inbounds nuw %struct.ReorderBufferTXN, ptr %28, i32 0, i32 7
  %30 = load ptr, ptr %29, align 8
  %31 = icmp ne ptr %30, null
  br i1 %31, label %32, label %60

32:                                               ; preds = %27
  call void @llvm.lifetime.start.p0(i64 8, ptr %8) #13
  %33 = load ptr, ptr %7, align 8
  %34 = getelementptr inbounds nuw %struct.ReorderBufferTXN, ptr %33, i32 0, i32 7
  %35 = load ptr, ptr %34, align 8
  %36 = icmp ne ptr %35, null
  br i1 %36, label %37, label %41

37:                                               ; preds = %32
  %38 = load ptr, ptr %7, align 8
  %39 = getelementptr inbounds nuw %struct.ReorderBufferTXN, ptr %38, i32 0, i32 7
  %40 = load ptr, ptr %39, align 8
  br label %43

41:                                               ; preds = %32
  %42 = load ptr, ptr %7, align 8
  br label %43

43:                                               ; preds = %41, %37
  %44 = phi ptr [ %40, %37 ], [ %42, %41 ]
  store ptr %44, ptr %8, align 8
  %45 = load ptr, ptr %8, align 8
  %46 = getelementptr inbounds nuw %struct.ReorderBufferTXN, ptr %45, i32 0, i32 0
  %47 = load i32, ptr %46, align 8
  %48 = and i32 %47, 1
  %49 = icmp ne i32 %48, 0
  br i1 %49, label %59, label %50

50:                                               ; preds = %43
  %51 = load ptr, ptr %8, align 8
  %52 = getelementptr inbounds nuw %struct.ReorderBufferTXN, ptr %51, i32 0, i32 0
  %53 = load i32, ptr %52, align 8
  %54 = or i32 %53, 1
  store i32 %54, ptr %52, align 8
  %55 = load ptr, ptr %4, align 8
  %56 = getelementptr inbounds nuw %struct.ReorderBuffer, ptr %55, i32 0, i32 3
  %57 = load ptr, ptr %8, align 8
  %58 = getelementptr inbounds nuw %struct.ReorderBufferTXN, ptr %57, i32 0, i32 29
  call void @dclist_push_tail(ptr noundef %56, ptr noundef %58)
  br label %59

59:                                               ; preds = %50, %43
  call void @llvm.lifetime.end.p0(i64 8, ptr %8) #13
  br label %60

60:                                               ; preds = %59, %27
  call void @llvm.lifetime.end.p0(i64 8, ptr %7) #13
  ret void
}