; Function Attrs: nounwind uwtable
define dso_local void @ReorderBufferXidSetCatalogChanges(ptr noundef %0, i32 noundef %1, i64 noundef %2) local_unnamed_addr #0 {
  %4 = tail call fastcc ptr @ReorderBufferTXNByXid(ptr noundef %0, i32 noundef %1, i1 noundef zeroext true, ptr noundef null, i64 noundef %2, i1 noundef zeroext true)
  %5 = load i32, ptr %4, align 8
  %6 = and i32 %5, 1
  %.not = icmp eq i32 %6, 0
  br i1 %.not, label %7, label %22

7:                                                ; preds = %3
  %8 = or disjoint i32 %5, 1
  store i32 %8, ptr %4, align 8
  %9 = getelementptr inbounds nuw i8, ptr %0, i64 40
  %10 = getelementptr inbounds nuw i8, ptr %4, i64 256
  %11 = getelementptr inbounds nuw i8, ptr %0, i64 48
  %12 = load ptr, ptr %11, align 8
  %13 = icmp eq ptr %12, null
  br i1 %13, label %14, label %dclist_push_tail.exit

14:                                               ; preds = %7
  store ptr %9, ptr %9, align 8
  store ptr %9, ptr %11, align 8
  %15 = getelementptr inbounds nuw i8, ptr %0, i64 56
  store i32 0, ptr %15, align 8
  br label %dclist_push_tail.exit

dclist_push_tail.exit:                            ; preds = %7, %14
  %16 = getelementptr inbounds nuw i8, ptr %4, i64 264
  store ptr %9, ptr %16, align 8
  %17 = load ptr, ptr %9, align 8
  store ptr %17, ptr %10, align 8
  %18 = getelementptr inbounds nuw i8, ptr %17, i64 8
  store ptr %10, ptr %18, align 8
  store ptr %10, ptr %9, align 8
  %19 = getelementptr inbounds nuw i8, ptr %0, i64 56
  %20 = load i32, ptr %19, align 8
  %21 = add i32 %20, 1
  store i32 %21, ptr %19, align 8
  br label %22

22:                                               ; preds = %dclist_push_tail.exit, %3
  %23 = getelementptr inbounds nuw i8, ptr %4, i64 48
  %24 = load ptr, ptr %23, align 8
  %.not14 = icmp eq ptr %24, null
  br i1 %.not14, label %43, label %25

25:                                               ; preds = %22
  %26 = load i32, ptr %24, align 8
  %27 = and i32 %26, 1
  %.not15 = icmp eq i32 %27, 0
  br i1 %.not15, label %28, label %43

28:                                               ; preds = %25
  %29 = or disjoint i32 %26, 1
  store i32 %29, ptr %24, align 8
  %30 = getelementptr inbounds nuw i8, ptr %0, i64 40
  %31 = getelementptr inbounds nuw i8, ptr %24, i64 256
  %32 = getelementptr inbounds nuw i8, ptr %0, i64 48
  %33 = load ptr, ptr %32, align 8
  %34 = icmp eq ptr %33, null
  br i1 %34, label %35, label %dclist_push_tail.exit16

35:                                               ; preds = %28
  store ptr %30, ptr %30, align 8
  store ptr %30, ptr %32, align 8
  %36 = getelementptr inbounds nuw i8, ptr %0, i64 56
  store i32 0, ptr %36, align 8
  br label %dclist_push_tail.exit16

dclist_push_tail.exit16:                          ; preds = %28, %35
  %37 = getelementptr inbounds nuw i8, ptr %24, i64 264
  store ptr %30, ptr %37, align 8
  %38 = load ptr, ptr %30, align 8
  store ptr %38, ptr %31, align 8
  %39 = getelementptr inbounds nuw i8, ptr %38, i64 8
  store ptr %31, ptr %39, align 8
  store ptr %31, ptr %30, align 8
  %40 = getelementptr inbounds nuw i8, ptr %0, i64 56
  %41 = load i32, ptr %40, align 8
  %42 = add i32 %41, 1
  store i32 %42, ptr %40, align 8
  br label %43

43:                                               ; preds = %25, %dclist_push_tail.exit16, %22
  ret void
}